; Function Attrs: mustprogress nounwind uwtable
define internal fastcc void @_ZSt8_DestroyIPN12_GLOBAL__N_115cmQtAutoMocUicT7KeyExpTEEvT_S4_(ptr noundef %0, ptr noundef readnone %1) unnamed_addr #5 {
  %.not4.i = icmp eq ptr %0, %1
  br i1 %.not4.i, label %_ZNSt12_Destroy_auxILb0EE9__destroyIPN12_GLOBAL__N_115cmQtAutoMocUicT7KeyExpTEEEvT_S6_.exit, label %.lr.ph.i

.lr.ph.i:                                         ; preds = %2, %_ZSt8_DestroyIN12_GLOBAL__N_115cmQtAutoMocUicT7KeyExpTEEvPT_.exit.i
  %.05.i = phi ptr [ %7, %_ZSt8_DestroyIN12_GLOBAL__N_115cmQtAutoMocUicT7KeyExpTEEvPT_.exit.i ], [ %0, %2 ]
  %3 = getelementptr inbounds i8, ptr %.05.i, i64 576
  %4 = load ptr, ptr %3, align 8
  %5 = icmp eq ptr %4, null
  br i1 %5, label %_ZSt8_DestroyIN12_GLOBAL__N_115cmQtAutoMocUicT7KeyExpTEEvPT_.exit.i, label %6

6:                                                ; preds = %.lr.ph.i
  tail call void @_ZdaPv(ptr noundef nonnull %4) #24
  br label %_ZSt8_DestroyIN12_GLOBAL__N_115cmQtAutoMocUicT7KeyExpTEEvPT_.exit.i

_ZSt8_DestroyIN12_GLOBAL__N_115cmQtAutoMocUicT7KeyExpTEEvPT_.exit.i: ; preds = %6, %.lr.ph.i
  tail call void @_ZNSt7__cxx1112basic_stringIcSt11char_traitsIcESaIcEED1Ev(ptr noundef nonnull align 8 dereferenceable(32) %.05.i) #23
  %7 = getelementptr inbounds i8, ptr %.05.i, i64 592
  %.not.i = icmp eq ptr %7, %1
  br i1 %.not.i, label %_ZNSt12_Destroy_auxILb0EE9__destroyIPN12_GLOBAL__N_115cmQtAutoMocUicT7KeyExpTEEEvT_S6_.exit, label %.lr.ph.i, !llvm.loop !8

_ZNSt12_Destroy_auxILb0EE9__destroyIPN12_GLOBAL__N_115cmQtAutoMocUicT7KeyExpTEEEvT_S6_.exit: ; preds = %_ZSt8_DestroyIN12_GLOBAL__N_115cmQtAutoMocUicT7KeyExpTEEvPT_.exit.i, %2
  ret void
}